target datalayout = "e-m:e-p270:32:32-p271:32:32-p272:64:64-i64:64-i128:128-f80:128-n8:16:32:64-S128"
target triple = "x86_64-pc-linux-gnu"

%struct.cpu_set_t = type { [16 x i64] }

; Function Attrs: inlinehint mustprogress nounwind uwtable
define linkonce_odr dso_local noundef nonnull align 4 dereferenceable(4) ptr @_ZSt3maxIiERKT_S2_S2_(ptr noundef nonnull align 4 dereferenceable(4) %0, ptr noundef nonnull align 4 dereferenceable(4) %1) #10 comdat {
  %3 = alloca ptr, align 8
  %4 = alloca ptr, align 8
  %5 = alloca ptr, align 8
  store ptr %0, ptr %4, align 8, !tbaa !77
  store ptr %1, ptr %5, align 8, !tbaa !77
  %6 = load ptr, ptr %4, align 8, !tbaa !77
  %7 = load i32, ptr %6, align 4, !tbaa !25
  %8 = load ptr, ptr %5, align 8, !tbaa !77
  %9 = load i32, ptr %8, align 4, !tbaa !25
  %10 = icmp slt i32 %7, %9
  br i1 %10, label %11, label %13

11:                                               ; preds = %2
  %12 = load ptr, ptr %5, align 8, !tbaa !77
  store ptr %12, ptr %3, align 8
  br label %15

13:                                               ; preds = %2
  %14 = load ptr, ptr %4, align 8, !tbaa !77
  store ptr %14, ptr %3, align 8
  br label %15

15:                                               ; preds = %13, %11
  %16 = load ptr, ptr %3, align 8
  ret ptr %16
}

; Function Attrs: inlinehint mustprogress nounwind uwtable
define linkonce_odr dso_local noundef nonnull align 4 dereferenceable(4) ptr @_ZSt3minIiERKT_S2_S2_(ptr noundef nonnull align 4 dereferenceable(4) %0, ptr noundef nonnull align 4 dereferenceable(4) %1) #10 comdat {
  %3 = alloca ptr, align 8
  %4 = alloca ptr, align 8
  %5 = alloca ptr, align 8
  store ptr %0, ptr %4, align 8, !tbaa !77
  store ptr %1, ptr %5, align 8, !tbaa !77
  %6 = load ptr, ptr %5, align 8, !tbaa !77
  %7 = load i32, ptr %6, align 4, !tbaa !25
  %8 = load ptr, ptr %4, align 8, !tbaa !77
  %9 = load i32, ptr %8, align 4, !tbaa !25
  %10 = icmp slt i32 %7, %9
  br i1 %10, label %11, label %13

11:                                               ; preds = %2
  %12 = load ptr, ptr %5, align 8, !tbaa !77
  store ptr %12, ptr %3, align 8
  br label %15

13:                                               ; preds = %2
  %14 = load ptr, ptr %4, align 8, !tbaa !77
  store ptr %14, ptr %3, align 8
  br label %15

15:                                               ; preds = %13, %11
  %16 = load ptr, ptr %3, align 8
  ret ptr %16
}

; Function Attrs: mustprogress uwtable
define dso_local noundef i32 @_Z17GetProcessorCountv() #6 {
  %1 = alloca i32, align 4
  %2 = alloca i32, align 4
  %3 = alloca i32, align 4
  %4 = alloca %struct.cpu_set_t, align 8
  %5 = alloca i32, align 4
  call void @llvm.lifetime.start.p0(i64 4, ptr %2) #21
  store i32 -1, ptr %2, align 4, !tbaa !25
  call void @llvm.lifetime.start.p0(i64 4, ptr %3) #21
  store i32 -1, ptr %3, align 4, !tbaa !25
  %6 = call noundef i32 @_Z18ParseCPUFromCGroupv()
  store i32 %6, ptr %2, align 4, !tbaa !25
  call void @llvm.lifetime.start.p0(i64 128, ptr %4) #21
  %7 = call i32 @getpid() #21
  %8 = call i32 @sched_getaffinity(i32 noundef %7, i64 noundef 128, ptr noundef %4) #21
  %9 = icmp eq i32 %8, 0
  br i1 %9, label %10, label %12

10:                                               ; preds = %0
  %11 = call i32 @__sched_cpucount(i64 noundef 128, ptr noundef %4) #21
  store i32 %11, ptr %3, align 4, !tbaa !25
  br label %12

12:                                               ; preds = %10, %0
  %13 = load i32, ptr %2, align 4, !tbaa !25
  %14 = icmp sge i32 %13, 0
  br i1 %14, label %15, label %21

15:                                               ; preds = %12
  %16 = load i32, ptr %3, align 4, !tbaa !25
  %17 = icmp sge i32 %16, 0
  br i1 %17, label %18, label %21

18:                                               ; preds = %15
  %19 = call noundef nonnull align 4 dereferenceable(4) ptr @_ZSt3minIiERKT_S2_S2_(ptr noundef nonnull align 4 dereferenceable(4) %2, ptr noundef nonnull align 4 dereferenceable(4) %3)
  %20 = load i32, ptr %19, align 4, !tbaa !25
  store i32 %20, ptr %1, align 4
  store i32 1, ptr %5, align 4
  br label %33

21:                                               ; preds = %15, %12
  %22 = load i32, ptr %2, align 4, !tbaa !25
  %23 = icmp slt i32 %22, 0
  br i1 %23, label %24, label %30

24:                                               ; preds = %21
  %25 = load i32, ptr %3, align 4, !tbaa !25
  %26 = icmp slt i32 %25, 0
  br i1 %26, label %27, label %30

27:                                               ; preds = %24
  %28 = call i64 @sysconf(i32 noundef 84) #21
  %29 = trunc i64 %28 to i32
  store i32 %29, ptr %1, align 4
  store i32 1, ptr %5, align 4
  br label %33

30:                                               ; preds = %24, %21
  %31 = call noundef nonnull align 4 dereferenceable(4) ptr @_ZSt3maxIiERKT_S2_S2_(ptr noundef nonnull align 4 dereferenceable(4) %2, ptr noundef nonnull align 4 dereferenceable(4) %3)
  %32 = load i32, ptr %31, align 4, !tbaa !25
  store i32 %32, ptr %1, align 4
  store i32 1, ptr %5, align 4
  br label %33

33:                                               ; preds = %30, %27, %18
  call void @llvm.lifetime.end.p0(i64 128, ptr %4) #21
  call void @llvm.lifetime.end.p0(i64 4, ptr %3) #21
  call void @llvm.lifetime.end.p0(i64 4, ptr %2) #21
  %34 = load i32, ptr %1, align 4
  ret i32 %34
}