; Function Attrs: mustprogress uwtable
define dso_local noundef i32 @_Z17GetProcessorCountv() local_unnamed_addr #7 {
  %1 = alloca %struct.cpu_set_t, align 8
  %2 = tail call noundef i32 @_Z18ParseCPUFromCGroupv()
  call void @llvm.lifetime.start.p0(i64 128, ptr nonnull %1) #32
  %3 = tail call i32 @getpid() #32
  %4 = call i32 @sched_getaffinity(i32 noundef %3, i64 noundef 128, ptr noundef nonnull %1) #32
  %5 = icmp eq i32 %4, 0
  br i1 %5, label %6, label %.thread

6:                                                ; preds = %0
  %7 = call i32 @__sched_cpucount(i64 noundef 128, ptr noundef nonnull %1) #32
  %8 = icmp sgt i32 %2, -1
  %9 = icmp sgt i32 %7, -1
  %or.cond = select i1 %8, i1 %9, i1 false
  br i1 %or.cond, label %10, label %.thread

10:                                               ; preds = %6
  %.sroa.speculated9 = call i32 @llvm.umin.i32(i32 %7, i32 %2)
  br label %17

.thread:                                          ; preds = %0, %6
  %.01922 = phi i32 [ %7, %6 ], [ -1, %0 ]
  %11 = icmp slt i32 %2, 0
  %12 = icmp slt i32 %.01922, 0
  %or.cond3 = select i1 %11, i1 %12, i1 false
  br i1 %or.cond3, label %13, label %16

13:                                               ; preds = %.thread
  %14 = call i64 @sysconf(i32 noundef 84) #32
  %15 = trunc i64 %14 to i32
  br label %17

16:                                               ; preds = %.thread
  %.sroa.speculated = call i32 @llvm.smax.i32(i32 %2, i32 %.01922)
  br label %17

17:                                               ; preds = %16, %13, %10
  %.0 = phi i32 [ %.sroa.speculated9, %10 ], [ %15, %13 ], [ %.sroa.speculated, %16 ]
  call void @llvm.lifetime.end.p0(i64 128, ptr nonnull %1) #32
  ret i32 %.0
}